target datalayout = "e-m:e-p270:32:32-p271:32:32-p272:64:64-i64:64-i128:128-f80:128-n8:16:32:64-S128"
target triple = "x86_64-pc-linux-gnu"

%"struct.rocksdb::SeqnoToTimeMapping::SeqnoTimePair" = type { i64, i64 }
%"class.rocksdb::SeqnoToTimeMapping" = type <{ i64, i64, %"class.std::deque", i8, [7 x i8] }>
%"class.std::deque" = type { %"class.std::_Deque_base" }
%"class.std::_Deque_base" = type { %"struct.std::_Deque_base<rocksdb::SeqnoToTimeMapping::SeqnoTimePair, std::allocator<rocksdb::SeqnoToTimeMapping::SeqnoTimePair>>::_Deque_impl" }
%"struct.std::_Deque_base<rocksdb::SeqnoToTimeMapping::SeqnoTimePair, std::allocator<rocksdb::SeqnoToTimeMapping::SeqnoTimePair>>::_Deque_impl" = type { %"struct.std::_Deque_base<rocksdb::SeqnoToTimeMapping::SeqnoTimePair, std::allocator<rocksdb::SeqnoToTimeMapping::SeqnoTimePair>>::_Deque_impl_data" }
%"struct.std::_Deque_base<rocksdb::SeqnoToTimeMapping::SeqnoTimePair, std::allocator<rocksdb::SeqnoToTimeMapping::SeqnoTimePair>>::_Deque_impl_data" = type { ptr, i64, %"struct.std::_Deque_iterator.3", %"struct.std::_Deque_iterator.3" }
%"struct.std::_Deque_iterator.3" = type { ptr, ptr, ptr, ptr }

; Function Attrs: inlinehint mustprogress nounwind uwtable
define linkonce_odr noundef i64 @_ZSt16__deque_buf_sizem(i64 noundef %0) #1 comdat {
  %2 = alloca i64, align 8
  store i64 %0, ptr %2, align 8, !tbaa !4
  %3 = load i64, ptr %2, align 8, !tbaa !4
  %4 = icmp ult i64 %3, 512
  br i1 %4, label %5, label %8

5:                                                ; preds = %1
  %6 = load i64, ptr %2, align 8, !tbaa !4
  %7 = udiv i64 512, %6
  br label %9

8:                                                ; preds = %1
  br label %9

9:                                                ; preds = %8, %5
  %10 = phi i64 [ %7, %5 ], [ 1, %8 ]
  ret i64 %10
}

; Function Attrs: mustprogress nounwind uwtable
define linkonce_odr noundef i64 @_ZNSt15_Deque_iteratorIN7rocksdb18SeqnoToTimeMapping13SeqnoTimePairERS2_PS2_E14_S_buffer_sizeEv() #3 comdat align 2 {
  %1 = call noundef i64 @_ZSt16__deque_buf_sizem(i64 noundef 16)
  ret i64 %1
}

; Function Attrs: mustprogress nounwind uwtable
define linkonce_odr void @_ZNSt15_Deque_iteratorIN7rocksdb18SeqnoToTimeMapping13SeqnoTimePairERS2_PS2_E11_M_set_nodeEPS4_(ptr noundef nonnull align 8 dereferenceable(32) %0, ptr noundef %1) #3 comdat align 2 {
  %3 = alloca ptr, align 8
  %4 = alloca ptr, align 8
  store ptr %0, ptr %3, align 8, !tbaa !74
  store ptr %1, ptr %4, align 8, !tbaa !63
  %5 = load ptr, ptr %3, align 8
  %6 = load ptr, ptr %4, align 8, !tbaa !63
  %7 = getelementptr inbounds nuw %"struct.std::_Deque_iterator.3", ptr %5, i32 0, i32 3
  store ptr %6, ptr %7, align 8, !tbaa !78
  %8 = load ptr, ptr %4, align 8, !tbaa !63
  %9 = load ptr, ptr %8, align 8, !tbaa !27
  %10 = getelementptr inbounds nuw %"struct.std::_Deque_iterator.3", ptr %5, i32 0, i32 1
  store ptr %9, ptr %10, align 8, !tbaa !79
  %11 = getelementptr inbounds nuw %"struct.std::_Deque_iterator.3", ptr %5, i32 0, i32 1
  %12 = load ptr, ptr %11, align 8, !tbaa !79
  %13 = call noundef i64 @_ZNSt15_Deque_iteratorIN7rocksdb18SeqnoToTimeMapping13SeqnoTimePairERS2_PS2_E14_S_buffer_sizeEv() #4
  %14 = getelementptr inbounds %"struct.rocksdb::SeqnoToTimeMapping::SeqnoTimePair", ptr %12, i64 %13
  %15 = getelementptr inbounds nuw %"struct.std::_Deque_iterator.3", ptr %5, i32 0, i32 2
  store ptr %14, ptr %15, align 8, !tbaa !77
  ret void
}

; Function Attrs: mustprogress nounwind uwtable
define linkonce_odr void @_ZNSt15_Deque_iteratorIN7rocksdb18SeqnoToTimeMapping13SeqnoTimePairERS2_PS2_EC2ERKS5_(ptr noundef nonnull align 8 dereferenceable(32) %0, ptr noundef nonnull align 8 dereferenceable(32) %1) unnamed_addr #3 comdat align 2 {
  %3 = alloca ptr, align 8
  %4 = alloca ptr, align 8
  store ptr %0, ptr %3, align 8, !tbaa !74
  store ptr %1, ptr %4, align 8, !tbaa !74
  %5 = load ptr, ptr %3, align 8
  %6 = getelementptr inbounds nuw %"struct.std::_Deque_iterator.3", ptr %5, i32 0, i32 0
  %7 = load ptr, ptr %4, align 8, !tbaa !74
  %8 = getelementptr inbounds nuw %"struct.std::_Deque_iterator.3", ptr %7, i32 0, i32 0
  %9 = load ptr, ptr %8, align 8, !tbaa !76
  store ptr %9, ptr %6, align 8, !tbaa !76
  %10 = getelementptr inbounds nuw %"struct.std::_Deque_iterator.3", ptr %5, i32 0, i32 1
  %11 = load ptr, ptr %4, align 8, !tbaa !74
  %12 = getelementptr inbounds nuw %"struct.std::_Deque_iterator.3", ptr %11, i32 0, i32 1
  %13 = load ptr, ptr %12, align 8, !tbaa !79
  store ptr %13, ptr %10, align 8, !tbaa !79
  %14 = getelementptr inbounds nuw %"struct.std::_Deque_iterator.3", ptr %5, i32 0, i32 2
  %15 = load ptr, ptr %4, align 8, !tbaa !74
  %16 = getelementptr inbounds nuw %"struct.std::_Deque_iterator.3", ptr %15, i32 0, i32 2
  %17 = load ptr, ptr %16, align 8, !tbaa !77
  store ptr %17, ptr %14, align 8, !tbaa !77
  %18 = getelementptr inbounds nuw %"struct.std::_Deque_iterator.3", ptr %5, i32 0, i32 3
  %19 = load ptr, ptr %4, align 8, !tbaa !74
  %20 = getelementptr inbounds nuw %"struct.std::_Deque_iterator.3", ptr %19, i32 0, i32 3
  %21 = load ptr, ptr %20, align 8, !tbaa !78
  store ptr %21, ptr %18, align 8, !tbaa !78
  ret void
}

; Function Attrs: mustprogress nounwind uwtable
define linkonce_odr void @_ZN7rocksdb18SeqnoToTimeMapping13SeqnoTimePairC2Emm(ptr noundef nonnull align 8 dereferenceable(16) %0, i64 noundef %1, i64 noundef %2) unnamed_addr #3 comdat align 2 {
  %4 = alloca ptr, align 8
  %5 = alloca i64, align 8
  %6 = alloca i64, align 8
  store ptr %0, ptr %4, align 8, !tbaa !27
  store i64 %1, ptr %5, align 8, !tbaa !4
  store i64 %2, ptr %6, align 8, !tbaa !4
  %7 = load ptr, ptr %4, align 8
  %8 = getelementptr inbounds nuw %"struct.rocksdb::SeqnoToTimeMapping::SeqnoTimePair", ptr %7, i32 0, i32 0
  %9 = load i64, ptr %5, align 8, !tbaa !4
  store i64 %9, ptr %8, align 8, !tbaa !32
  %10 = getelementptr inbounds nuw %"struct.rocksdb::SeqnoToTimeMapping::SeqnoTimePair", ptr %7, i32 0, i32 1
  %11 = load i64, ptr %6, align 8, !tbaa !4
  store i64 %11, ptr %10, align 8, !tbaa !34
  ret void
}

; Function Attrs: mustprogress nounwind uwtable
define linkonce_odr noundef nonnull align 8 dereferenceable(16) ptr @_ZNKSt15_Deque_iteratorIN7rocksdb18SeqnoToTimeMapping13SeqnoTimePairERS2_PS2_EdeEv(ptr noundef nonnull align 8 dereferenceable(32) %0) #3 comdat align 2 {
  %2 = alloca ptr, align 8
  store ptr %0, ptr %2, align 8, !tbaa !74
  %3 = load ptr, ptr %2, align 8
  %4 = getelementptr inbounds nuw %"struct.std::_Deque_iterator.3", ptr %3, i32 0, i32 0
  %5 = load ptr, ptr %4, align 8, !tbaa !76
  ret ptr %5
}

; Function Attrs: mustprogress nounwind uwtable
define linkonce_odr noundef nonnull align 8 dereferenceable(32) ptr @_ZNSt15_Deque_iteratorIN7rocksdb18SeqnoToTimeMapping13SeqnoTimePairERS2_PS2_EmmEv(ptr noundef nonnull align 8 dereferenceable(32) %0) #3 comdat align 2 {
  %2 = alloca ptr, align 8
  store ptr %0, ptr %2, align 8, !tbaa !74
  %3 = load ptr, ptr %2, align 8
  %4 = getelementptr inbounds nuw %"struct.std::_Deque_iterator.3", ptr %3, i32 0, i32 0
  %5 = load ptr, ptr %4, align 8, !tbaa !76
  %6 = getelementptr inbounds nuw %"struct.std::_Deque_iterator.3", ptr %3, i32 0, i32 1
  %7 = load ptr, ptr %6, align 8, !tbaa !79
  %8 = icmp eq ptr %5, %7
  br i1 %8, label %9, label %16

9:                                                ; preds = %1
  %10 = getelementptr inbounds nuw %"struct.std::_Deque_iterator.3", ptr %3, i32 0, i32 3
  %11 = load ptr, ptr %10, align 8, !tbaa !78
  %12 = getelementptr inbounds ptr, ptr %11, i64 -1
  call void @_ZNSt15_Deque_iteratorIN7rocksdb18SeqnoToTimeMapping13SeqnoTimePairERS2_PS2_E11_M_set_nodeEPS4_(ptr noundef nonnull align 8 dereferenceable(32) %3, ptr noundef %12) #4
  %13 = getelementptr inbounds nuw %"struct.std::_Deque_iterator.3", ptr %3, i32 0, i32 2
  %14 = load ptr, ptr %13, align 8, !tbaa !77
  %15 = getelementptr inbounds nuw %"struct.std::_Deque_iterator.3", ptr %3, i32 0, i32 0
  store ptr %14, ptr %15, align 8, !tbaa !76
  br label %16

16:                                               ; preds = %9, %1
  %17 = getelementptr inbounds nuw %"struct.std::_Deque_iterator.3", ptr %3, i32 0, i32 0
  %18 = load ptr, ptr %17, align 8, !tbaa !76
  %19 = getelementptr inbounds %"struct.rocksdb::SeqnoToTimeMapping::SeqnoTimePair", ptr %18, i32 -1
  store ptr %19, ptr %17, align 8, !tbaa !76
  ret ptr %3
}

; Function Attrs: mustprogress nounwind uwtable
define linkonce_odr void @_ZNSt5dequeIN7rocksdb18SeqnoToTimeMapping13SeqnoTimePairESaIS2_EE3endEv(ptr dead_on_unwind noalias writable sret(%"struct.std::_Deque_iterator.3") align 8 %0, ptr noundef nonnull align 8 dereferenceable(80) %1) #3 comdat align 2 {
  %3 = alloca ptr, align 8
  %4 = alloca ptr, align 8
  store ptr %0, ptr %3, align 8
  store ptr %1, ptr %4, align 8, !tbaa !30
  %5 = load ptr, ptr %4, align 8
  %6 = getelementptr inbounds nuw %"class.std::_Deque_base", ptr %5, i32 0, i32 0
  %7 = getelementptr inbounds nuw %"struct.std::_Deque_base<rocksdb::SeqnoToTimeMapping::SeqnoTimePair, std::allocator<rocksdb::SeqnoToTimeMapping::SeqnoTimePair>>::_Deque_impl_data", ptr %6, i32 0, i32 3
  call void @_ZNSt15_Deque_iteratorIN7rocksdb18SeqnoToTimeMapping13SeqnoTimePairERS2_PS2_EC2ERKS5_(ptr noundef nonnull align 8 dereferenceable(32) %0, ptr noundef nonnull align 8 dereferenceable(32) %7) #4
  ret void
}

; Function Attrs: mustprogress uwtable
define linkonce_odr void @_ZNSt15__new_allocatorIN7rocksdb18SeqnoToTimeMapping13SeqnoTimePairEE9constructIS2_JRmS5_EEEvPT_DpOT0_(ptr noundef nonnull align 1 dereferenceable(1) %0, ptr noundef %1, ptr noundef nonnull align 8 dereferenceable(8) %2, ptr noundef nonnull align 8 dereferenceable(8) %3) #5 comdat align 2 {
  %5 = alloca ptr, align 8
  %6 = alloca ptr, align 8
  %7 = alloca ptr, align 8
  %8 = alloca ptr, align 8
  store ptr %0, ptr %5, align 8, !tbaa !130
  store ptr %1, ptr %6, align 8, !tbaa !27
  store ptr %2, ptr %7, align 8, !tbaa !44
  store ptr %3, ptr %8, align 8, !tbaa !44
  %9 = load ptr, ptr %6, align 8, !tbaa !27
  %10 = load ptr, ptr %7, align 8, !tbaa !44
  %11 = load i64, ptr %10, align 8, !tbaa !4
  %12 = load ptr, ptr %8, align 8, !tbaa !44
  %13 = load i64, ptr %12, align 8, !tbaa !4
  call void @_ZN7rocksdb18SeqnoToTimeMapping13SeqnoTimePairC2Emm(ptr noundef nonnull align 8 dereferenceable(16) %9, i64 noundef %11, i64 noundef %13)
  ret void
}

; Function Attrs: mustprogress nounwind uwtable
define linkonce_odr noundef nonnull align 8 dereferenceable(16) ptr @_ZNSt5dequeIN7rocksdb18SeqnoToTimeMapping13SeqnoTimePairESaIS2_EE4backEv(ptr noundef nonnull align 8 dereferenceable(80) %0) #3 comdat align 2 {
  %2 = alloca ptr, align 8
  %3 = alloca %"struct.std::_Deque_iterator.3", align 8
  store ptr %0, ptr %2, align 8, !tbaa !30
  %4 = load ptr, ptr %2, align 8
  call void @llvm.lifetime.start.p0(i64 32, ptr %3) #4
  call void @_ZNSt5dequeIN7rocksdb18SeqnoToTimeMapping13SeqnoTimePairESaIS2_EE3endEv(ptr dead_on_unwind writable sret(%"struct.std::_Deque_iterator.3") align 8 %3, ptr noundef nonnull align 8 dereferenceable(80) %4) #4
  %5 = call noundef nonnull align 8 dereferenceable(32) ptr @_ZNSt15_Deque_iteratorIN7rocksdb18SeqnoToTimeMapping13SeqnoTimePairERS2_PS2_EmmEv(ptr noundef nonnull align 8 dereferenceable(32) %3) #4
  %6 = call noundef nonnull align 8 dereferenceable(16) ptr @_ZNKSt15_Deque_iteratorIN7rocksdb18SeqnoToTimeMapping13SeqnoTimePairERS2_PS2_EdeEv(ptr noundef nonnull align 8 dereferenceable(32) %3) #4
  call void @llvm.lifetime.end.p0(i64 32, ptr %3) #4
  ret ptr %6
}

; Function Attrs: mustprogress uwtable
define linkonce_odr void @_ZNSt16allocator_traitsISaIN7rocksdb18SeqnoToTimeMapping13SeqnoTimePairEEE9constructIS2_JRmS6_EEEvRS3_PT_DpOT0_(ptr noundef nonnull align 1 dereferenceable(1) %0, ptr noundef %1, ptr noundef nonnull align 8 dereferenceable(8) %2, ptr noundef nonnull align 8 dereferenceable(8) %3) #5 comdat align 2 {
  %5 = alloca ptr, align 8
  %6 = alloca ptr, align 8
  %7 = alloca ptr, align 8
  %8 = alloca ptr, align 8
  store ptr %0, ptr %5, align 8, !tbaa !126
  store ptr %1, ptr %6, align 8, !tbaa !27
  store ptr %2, ptr %7, align 8, !tbaa !44
  store ptr %3, ptr %8, align 8, !tbaa !44
  %9 = load ptr, ptr %5, align 8, !tbaa !126
  %10 = load ptr, ptr %6, align 8, !tbaa !27
  %11 = load ptr, ptr %7, align 8, !tbaa !44
  %12 = load ptr, ptr %8, align 8, !tbaa !44
  call void @_ZNSt15__new_allocatorIN7rocksdb18SeqnoToTimeMapping13SeqnoTimePairEE9constructIS2_JRmS5_EEEvPT_DpOT0_(ptr noundef nonnull align 1 dereferenceable(1) %9, ptr noundef %10, ptr noundef nonnull align 8 dereferenceable(8) %11, ptr noundef nonnull align 8 dereferenceable(8) %12)
  ret void
}

; Function Attrs: mustprogress uwtable
define linkonce_odr noundef nonnull align 8 dereferenceable(16) ptr @_ZNSt5dequeIN7rocksdb18SeqnoToTimeMapping13SeqnoTimePairESaIS2_EE12emplace_backIJRmS6_EEERS2_DpOT_(ptr noundef nonnull align 8 dereferenceable(80) %0, ptr noundef nonnull align 8 dereferenceable(8) %1, ptr noundef nonnull align 8 dereferenceable(8) %2) #5 comdat align 2 {
  %4 = alloca ptr, align 8
  %5 = alloca ptr, align 8
  %6 = alloca ptr, align 8
  store ptr %0, ptr %4, align 8, !tbaa !30
  store ptr %1, ptr %5, align 8, !tbaa !44
  store ptr %2, ptr %6, align 8, !tbaa !44
  %7 = load ptr, ptr %4, align 8
  %8 = getelementptr inbounds nuw %"class.std::_Deque_base", ptr %7, i32 0, i32 0
  %9 = getelementptr inbounds nuw %"struct.std::_Deque_base<rocksdb::SeqnoToTimeMapping::SeqnoTimePair, std::allocator<rocksdb::SeqnoToTimeMapping::SeqnoTimePair>>::_Deque_impl_data", ptr %8, i32 0, i32 3
  %10 = getelementptr inbounds nuw %"struct.std::_Deque_iterator.3", ptr %9, i32 0, i32 0
  %11 = load ptr, ptr %10, align 8, !tbaa !84
  %12 = getelementptr inbounds nuw %"class.std::_Deque_base", ptr %7, i32 0, i32 0
  %13 = getelementptr inbounds nuw %"struct.std::_Deque_base<rocksdb::SeqnoToTimeMapping::SeqnoTimePair, std::allocator<rocksdb::SeqnoToTimeMapping::SeqnoTimePair>>::_Deque_impl_data", ptr %12, i32 0, i32 3
  %14 = getelementptr inbounds nuw %"struct.std::_Deque_iterator.3", ptr %13, i32 0, i32 2
  %15 = load ptr, ptr %14, align 8, !tbaa !85
  %16 = getelementptr inbounds %"struct.rocksdb::SeqnoToTimeMapping::SeqnoTimePair", ptr %15, i64 -1
  %17 = icmp ne ptr %11, %16
  br i1 %17, label %18, label %31

18:                                               ; preds = %3
  %19 = getelementptr inbounds nuw %"class.std::_Deque_base", ptr %7, i32 0, i32 0
  %20 = getelementptr inbounds nuw %"class.std::_Deque_base", ptr %7, i32 0, i32 0
  %21 = getelementptr inbounds nuw %"struct.std::_Deque_base<rocksdb::SeqnoToTimeMapping::SeqnoTimePair, std::allocator<rocksdb::SeqnoToTimeMapping::SeqnoTimePair>>::_Deque_impl_data", ptr %20, i32 0, i32 3
  %22 = getelementptr inbounds nuw %"struct.std::_Deque_iterator.3", ptr %21, i32 0, i32 0
  %23 = load ptr, ptr %22, align 8, !tbaa !84
  %24 = load ptr, ptr %5, align 8, !tbaa !44
  %25 = load ptr, ptr %6, align 8, !tbaa !44
  call void @_ZNSt16allocator_traitsISaIN7rocksdb18SeqnoToTimeMapping13SeqnoTimePairEEE9constructIS2_JRmS6_EEEvRS3_PT_DpOT0_(ptr noundef nonnull align 1 dereferenceable(1) %19, ptr noundef %23, ptr noundef nonnull align 8 dereferenceable(8) %24, ptr noundef nonnull align 8 dereferenceable(8) %25)
  %26 = getelementptr inbounds nuw %"class.std::_Deque_base", ptr %7, i32 0, i32 0
  %27 = getelementptr inbounds nuw %"struct.std::_Deque_base<rocksdb::SeqnoToTimeMapping::SeqnoTimePair, std::allocator<rocksdb::SeqnoToTimeMapping::SeqnoTimePair>>::_Deque_impl_data", ptr %26, i32 0, i32 3
  %28 = getelementptr inbounds nuw %"struct.std::_Deque_iterator.3", ptr %27, i32 0, i32 0
  %29 = load ptr, ptr %28, align 8, !tbaa !84
  %30 = getelementptr inbounds nuw %"struct.rocksdb::SeqnoToTimeMapping::SeqnoTimePair", ptr %29, i32 1
  store ptr %30, ptr %28, align 8, !tbaa !84
  br label %34

31:                                               ; preds = %3
  %32 = load ptr, ptr %5, align 8, !tbaa !44
  %33 = load ptr, ptr %6, align 8, !tbaa !44
  call void @_ZNSt5dequeIN7rocksdb18SeqnoToTimeMapping13SeqnoTimePairESaIS2_EE16_M_push_back_auxIJRmS6_EEEvDpOT_(ptr noundef nonnull align 8 dereferenceable(80) %7, ptr noundef nonnull align 8 dereferenceable(8) %32, ptr noundef nonnull align 8 dereferenceable(8) %33)
  br label %34

34:                                               ; preds = %31, %18
  %35 = call noundef nonnull align 8 dereferenceable(16) ptr @_ZNSt5dequeIN7rocksdb18SeqnoToTimeMapping13SeqnoTimePairESaIS2_EE4backEv(ptr noundef nonnull align 8 dereferenceable(80) %7) #4
  ret ptr %35
}

; Function Attrs: mustprogress uwtable
define void @_ZN7rocksdb18SeqnoToTimeMapping13AddUnenforcedEmm(ptr noundef nonnull align 8 dereferenceable(97) %0, i64 noundef %1, i64 noundef %2) #5 align 2 {
  %4 = alloca ptr, align 8
  %5 = alloca i64, align 8
  %6 = alloca i64, align 8
  store ptr %0, ptr %4, align 8, !tbaa !23
  store i64 %1, ptr %5, align 8, !tbaa !4
  store i64 %2, ptr %6, align 8, !tbaa !4
  %7 = load ptr, ptr %4, align 8
  %8 = load i64, ptr %5, align 8, !tbaa !4
  %9 = icmp eq i64 %8, 0
  br i1 %9, label %10, label %11

10:                                               ; preds = %3
  br label %15

11:                                               ; preds = %3
  %12 = getelementptr inbounds nuw %"class.rocksdb::SeqnoToTimeMapping", ptr %7, i32 0, i32 3
  store i8 0, ptr %12, align 8, !tbaa !83
  %13 = getelementptr inbounds nuw %"class.rocksdb::SeqnoToTimeMapping", ptr %7, i32 0, i32 2
  %14 = call noundef nonnull align 8 dereferenceable(16) ptr @_ZNSt5dequeIN7rocksdb18SeqnoToTimeMapping13SeqnoTimePairESaIS2_EE12emplace_backIJRmS6_EEERS2_DpOT_(ptr noundef nonnull align 8 dereferenceable(80) %13, ptr noundef nonnull align 8 dereferenceable(8) %5, ptr noundef nonnull align 8 dereferenceable(8) %6)
  br label %15

15:                                               ; preds = %11, %10
  ret void
}