; Function Attrs: mustprogress uwtable
define void @_ZN7rocksdb18SeqnoToTimeMapping13AddUnenforcedEmm(ptr noundef nonnull align 8 dereferenceable(97) %0, i64 noundef %1, i64 noundef %2) local_unnamed_addr #6 align 2 {
  %4 = alloca i64, align 8
  %5 = alloca i64, align 8
  store i64 %1, ptr %4, align 8, !tbaa !113
  store i64 %2, ptr %5, align 8, !tbaa !113
  %6 = icmp eq i64 %1, 0
  br i1 %6, label %_ZNSt5dequeIN7rocksdb18SeqnoToTimeMapping13SeqnoTimePairESaIS2_EE12emplace_backIJRmS6_EEERS2_DpOT_.exit, label %7

7:                                                ; preds = %3
  %8 = getelementptr inbounds nuw i8, ptr %0, i64 96
  store i8 0, ptr %8, align 8, !tbaa !233
  %9 = getelementptr inbounds nuw i8, ptr %0, i64 64
  %10 = load ptr, ptr %9, align 8, !tbaa !236
  %11 = getelementptr inbounds nuw i8, ptr %0, i64 80
  %12 = load ptr, ptr %11, align 8, !tbaa !237
  %13 = getelementptr inbounds i8, ptr %12, i64 -16
  %.not.i = icmp eq ptr %10, %13
  br i1 %.not.i, label %17, label %14

14:                                               ; preds = %7
  store i64 %1, ptr %10, align 8, !tbaa !56
  %15 = getelementptr inbounds nuw i8, ptr %10, i64 8
  store i64 %2, ptr %15, align 8, !tbaa !33
  %16 = getelementptr inbounds nuw i8, ptr %10, i64 16
  store ptr %16, ptr %9, align 8, !tbaa !236
  br label %_ZNSt5dequeIN7rocksdb18SeqnoToTimeMapping13SeqnoTimePairESaIS2_EE12emplace_backIJRmS6_EEERS2_DpOT_.exit

17:                                               ; preds = %7
  %18 = getelementptr inbounds nuw i8, ptr %0, i64 16
  call void @_ZNSt5dequeIN7rocksdb18SeqnoToTimeMapping13SeqnoTimePairESaIS2_EE16_M_push_back_auxIJRmS6_EEEvDpOT_(ptr noundef nonnull align 8 dereferenceable(80) %18, ptr noundef nonnull align 8 dereferenceable(8) %4, ptr noundef nonnull align 8 dereferenceable(8) %5)
  br label %_ZNSt5dequeIN7rocksdb18SeqnoToTimeMapping13SeqnoTimePairESaIS2_EE12emplace_backIJRmS6_EEERS2_DpOT_.exit

_ZNSt5dequeIN7rocksdb18SeqnoToTimeMapping13SeqnoTimePairESaIS2_EE12emplace_backIJRmS6_EEERS2_DpOT_.exit: ; preds = %14, %17, %3
  ret void
}